target datalayout = "e-m:e-p270:32:32-p271:32:32-p272:64:64-i64:64-i128:128-f80:128-n8:16:32:64-S128"
target triple = "x86_64-pc-linux-gnu"

%struct._dcerpc_info = type { ptr, i32, i64, i8, i8, i8, i32, i32, i32, i32, i32, i32, i32, i32, ptr, ptr, ptr, ptr, %struct.anon }
%struct.anon = type { i8, ptr, ptr, ptr, i8 }

; Function Attrs: null_pointer_is_valid sspstrong uwtable
define i32 @dissect_ndr_double(ptr noundef %0, i32 noundef %1, ptr noundef %2, ptr noundef %3, ptr noundef %4, ptr noundef %5, i32 noundef %6, ptr noundef %7) #0 {
  %9 = alloca i32, align 4
  %10 = alloca ptr, align 8
  %11 = alloca i32, align 4
  %12 = alloca ptr, align 8
  %13 = alloca ptr, align 8
  %14 = alloca ptr, align 8
  %15 = alloca ptr, align 8
  %16 = alloca i32, align 4
  %17 = alloca ptr, align 8
  store ptr %0, ptr %10, align 8
  store i32 %1, ptr %11, align 4
  store ptr %2, ptr %12, align 8
  store ptr %3, ptr %13, align 8
  store ptr %4, ptr %14, align 8
  store ptr %5, ptr %15, align 8
  store i32 %6, ptr %16, align 4
  store ptr %7, ptr %17, align 8
  %18 = load ptr, ptr %17, align 8
  %19 = icmp ne ptr %18, null
  br i1 %19, label %20, label %22

20:                                               ; preds = %8
  %21 = load ptr, ptr %17, align 8
  store double 0.000000e+00, ptr %21, align 8
  br label %22

22:                                               ; preds = %20, %8
  %23 = load ptr, ptr %14, align 8
  %24 = getelementptr inbounds nuw %struct._dcerpc_info, ptr %23, i32 0, i32 4
  %25 = load i8, ptr %24, align 1, !range !6, !noundef !7
  %26 = trunc i8 %25 to i1
  br i1 %26, label %27, label %29

27:                                               ; preds = %22
  %28 = load i32, ptr %11, align 4
  store i32 %28, ptr %9, align 4
  br label %53

29:                                               ; preds = %22
  %30 = load ptr, ptr %14, align 8
  %31 = getelementptr inbounds nuw %struct._dcerpc_info, ptr %30, i32 0, i32 5
  %32 = load i8, ptr %31, align 2, !range !6, !noundef !7
  %33 = trunc i8 %32 to i1
  br i1 %33, label %44, label %34

34:                                               ; preds = %29
  %35 = load i32, ptr %11, align 4
  %36 = srem i32 %35, 8
  %37 = icmp ne i32 %36, 0
  br i1 %37, label %38, label %44

38:                                               ; preds = %34
  %39 = load i32, ptr %11, align 4
  %40 = srem i32 %39, 8
  %41 = sub i32 8, %40
  %42 = load i32, ptr %11, align 4
  %43 = add i32 %42, %41
  store i32 %43, ptr %11, align 4
  br label %44

44:                                               ; preds = %38, %34, %29
  %45 = load ptr, ptr %10, align 8
  %46 = load i32, ptr %11, align 4
  %47 = load ptr, ptr %12, align 8
  %48 = load ptr, ptr %13, align 8
  %49 = load ptr, ptr %15, align 8
  %50 = load i32, ptr %16, align 4
  %51 = load ptr, ptr %17, align 8
  %52 = call i32 @dissect_dcerpc_double(ptr noundef %45, i32 noundef %46, ptr noundef %47, ptr noundef %48, ptr noundef %49, i32 noundef %50, ptr noundef %51)
  store i32 %52, ptr %9, align 4
  br label %53

53:                                               ; preds = %44, %27
  %54 = load i32, ptr %9, align 4
  ret i32 %54
}